; Function Attrs: mustprogress uwtable
define dso_local void @_ZNK4i18n12phonenumbers26PhoneNumberOfflineGeocoder20GetRegionDisplayNameEPKNSt7__cxx1112basic_stringIcSt11char_traitsIcESaIcEEERKN6icu_706LocaleE(ptr dead_on_unwind noalias writable sret(%"class.std::__cxx11::basic_string") align 8 %0, ptr nocapture nonnull readnone align 8 %1, ptr noundef %2, ptr noundef nonnull align 8 dereferenceable(217) %3) local_unnamed_addr #3 align 2 personality ptr @__gxx_personality_v0 {
  %5 = alloca %"class.std::allocator.0", align 1
  %6 = alloca %"class.icu_70::UnicodeString", align 8
  %7 = alloca %"class.icu_70::Locale", align 8
  %8 = icmp eq ptr %2, null
  br i1 %8, label %15, label %9

9:                                                ; preds = %4
  %10 = tail call noundef i32 @_ZNKSt7__cxx1112basic_stringIcSt11char_traitsIcESaIcEE7compareEPKc(ptr noundef nonnull align 8 dereferenceable(32) %2, ptr noundef nonnull @.str) #14
  %11 = icmp eq i32 %10, 0
  br i1 %11, label %15, label %12

12:                                               ; preds = %9
  %13 = tail call noundef i32 @_ZNKSt7__cxx1112basic_stringIcSt11char_traitsIcESaIcEE7compareEPKc(ptr noundef nonnull align 8 dereferenceable(32) %2, ptr noundef nonnull @_ZN4i18n12phonenumbers15PhoneNumberUtil26kRegionCodeForNonGeoEntityE) #14
  %14 = icmp eq i32 %13, 0
  br i1 %14, label %15, label %21

15:                                               ; preds = %12, %9, %4
  call void @_ZNSaIcEC1Ev(ptr noundef nonnull align 1 dereferenceable(1) %5) #14
  %16 = invoke noundef ptr @_ZNSt7__cxx1112basic_stringIcSt11char_traitsIcESaIcEE13_M_local_dataEv(ptr noundef nonnull align 8 dereferenceable(32) %0)
          to label %.noexc unwind label %19

.noexc:                                           ; preds = %15
  invoke void @_ZNSt7__cxx1112basic_stringIcSt11char_traitsIcESaIcEE12_Alloc_hiderC1EPcRKS3_(ptr noundef nonnull align 8 dereferenceable(8) %0, ptr noundef %16, ptr noundef nonnull align 1 dereferenceable(1) %5)
          to label %.noexc13 unwind label %19

.noexc13:                                         ; preds = %.noexc
  invoke void @_ZNSt7__cxx1112basic_stringIcSt11char_traitsIcESaIcEE12_M_constructIPKcEEvT_S8_St20forward_iterator_tag(ptr noundef nonnull align 8 dereferenceable(32) %0, ptr noundef nonnull @.str.1, ptr noundef nonnull @.str.1)
          to label %_ZNSt7__cxx1112basic_stringIcSt11char_traitsIcESaIcEEC2IS3_EEPKcRKS3_.exit unwind label %17

17:                                               ; preds = %.noexc13
  %18 = landingpad { ptr, i32 }
          cleanup
  call void @_ZNSaIcED2Ev(ptr noundef nonnull align 1 dereferenceable(1) %0) #14
  br label %.body

_ZNSt7__cxx1112basic_stringIcSt11char_traitsIcESaIcEEC2IS3_EEPKcRKS3_.exit: ; preds = %.noexc13
  call void @_ZNSaIcED1Ev(ptr noundef nonnull align 1 dereferenceable(1) %5) #14
  br label %36

19:                                               ; preds = %.noexc, %15
  %20 = landingpad { ptr, i32 }
          cleanup
  br label %.body

.body:                                            ; preds = %17, %19
  %eh.lpad-body = phi { ptr, i32 } [ %20, %19 ], [ %18, %17 ]
  call void @_ZNSaIcED1Ev(ptr noundef nonnull align 1 dereferenceable(1) %5) #14
  br label %37

21:                                               ; preds = %12
  store ptr getelementptr inbounds ({ [13 x ptr] }, ptr @_ZTVN6icu_7013UnicodeStringE, i64 0, i32 0, i64 2), ptr %6, align 8
  %22 = getelementptr inbounds i8, ptr %6, i64 8
  store i16 2, ptr %22, align 8
  %23 = tail call noundef ptr @_ZNKSt7__cxx1112basic_stringIcSt11char_traitsIcESaIcEE5c_strEv(ptr noundef nonnull align 8 dereferenceable(32) %2) #14
  invoke void @_ZN6icu_706LocaleC1EPKcS2_S2_S2_(ptr noundef nonnull align 8 dereferenceable(217) %7, ptr noundef nonnull @.str.1, ptr noundef %23, ptr noundef null, ptr noundef null)
          to label %24 unwind label %28

24:                                               ; preds = %21
  %25 = invoke noundef nonnull align 8 dereferenceable(64) ptr @_ZNK6icu_706Locale17getDisplayCountryERKS0_RNS_13UnicodeStringE(ptr noundef nonnull align 8 dereferenceable(217) %7, ptr noundef nonnull align 8 dereferenceable(217) %3, ptr noundef nonnull align 8 dereferenceable(64) %6)
          to label %26 unwind label %30

26:                                               ; preds = %24
  call void @_ZN6icu_706LocaleD1Ev(ptr noundef nonnull align 8 dereferenceable(217) %7) #14
  call void @_ZNSt7__cxx1112basic_stringIcSt11char_traitsIcESaIcEEC1Ev(ptr noundef nonnull align 8 dereferenceable(32) %0) #14
  %27 = invoke noundef nonnull align 8 dereferenceable(32) ptr @_ZNK6icu_7013UnicodeString12toUTF8StringINSt7__cxx1112basic_stringIcSt11char_traitsIcESaIcEEEEERT_S9_(ptr noundef nonnull align 8 dereferenceable(64) %6, ptr noundef nonnull align 8 dereferenceable(32) %0)
          to label %34 unwind label %32

28:                                               ; preds = %21
  %29 = landingpad { ptr, i32 }
          cleanup
  br label %35

30:                                               ; preds = %24
  %31 = landingpad { ptr, i32 }
          cleanup
  call void @_ZN6icu_706LocaleD1Ev(ptr noundef nonnull align 8 dereferenceable(217) %7) #14
  br label %35

32:                                               ; preds = %26
  %33 = landingpad { ptr, i32 }
          cleanup
  call void @_ZNSt7__cxx1112basic_stringIcSt11char_traitsIcESaIcEED1Ev(ptr noundef nonnull align 8 dereferenceable(32) %0) #14
  br label %35

34:                                               ; preds = %26
  call void @_ZN6icu_7013UnicodeStringD1Ev(ptr noundef nonnull align 8 dereferenceable(64) %6) #14
  br label %36

35:                                               ; preds = %32, %30, %28
  %.pn = phi { ptr, i32 } [ %33, %32 ], [ %31, %30 ], [ %29, %28 ]
  call void @_ZN6icu_7013UnicodeStringD1Ev(ptr noundef nonnull align 8 dereferenceable(64) %6) #14
  br label %37

36:                                               ; preds = %34, %_ZNSt7__cxx1112basic_stringIcSt11char_traitsIcESaIcEEC2IS3_EEPKcRKS3_.exit
  ret void

37:                                               ; preds = %35, %.body
  %.pn11 = phi { ptr, i32 } [ %eh.lpad-body, %.body ], [ %.pn, %35 ]
  resume { ptr, i32 } %.pn11
}